Certificate:
    Data:
        Version: 3 (0x2)
        Serial Number: 1 (0x1)
    Signature Algorithm: sha256WithRSAEncryption
        Issuer: C=CN, ST=ShangHai, L=ShangHai, O=xyz, OU=xyz, CN=xyz.com./emailAddress=xyz@xyz.com
        Validity
            Not Before: Feb  2 07:20:04 2018 GMT
            Not After : Jan 31 07:20:04 2028 GMT
        Subject: C=CN, ST=ShangHai, O=xyz, OU=xyz, CN=xyz./emailAddress=xyz@xyz.com
        Subject Public Key Info:
            Public Key Algorithm: rsaEncryption
                Public-Key: (4096 bit)
                Modulus:
                    00:b5:f8:7b:13:98:00:5f:17:04:8a:b5:91:74:4a:
                    bc:31:ae:7d:65:c7:12:ae:7a:dd:09:84:c0:22:cb:
                    ec:5c:eb:e3:af:80:77:b0:94:70:0d:7e:e1:da:cb:
                    73:82:9e:43:88:6a:21:2b:1e:6c:c7:f2:61:dc:7a:
                    8d:e4:de:bf:62:01:d1:4b:5f:13:a7:e6:cd:90:42:
                    c6:44:99:25:b5:da:1a:08:75:45:75:ab:1a:51:d3:
                    39:ce:18:33:e2:91:58:86:4c:a0:d5:44:b4:1b:24:
                    5e:a2:30:1d:3e:e3:c6:1d:17:30:92:7c:e6:fd:e6:
                    f3:9a:12:eb:a5:2f:41:60:f6:09:57:43:41:11:7d:
                    84:36:4f:5b:c3:f9:d2:fc:65:7b:33:3e:d1:07:af:
                    2e:31:f9:23:67:0f:e7:e4:6e:50:a2:6b:8d:54:84:
                    96:01:56:26:79:da:e0:86:7b:4f:28:d7:c1:26:83:
                    72:3d:33:3d:a6:d9:f2:ef:74:5a:d1:28:b1:ba:69:
                    5f:c4:33:f8:89:6d:c4:27:d0:da:56:4b:b2:f6:30:
                    1d:50:80:8c:08:db:fa:e1:ab:8e:97:09:10:45:49:
                    b3:ed:63:7c:fc:9f:e5:98:41:ef:02:45:87:8b:13:
                    c4:3f:75:54:4a:08:ff:e9:6f:f4:65:71:27:ce:c0:
                    3e:0a:d6:6e:d4:ed:ab:83:0a:7f:64:2f:28:c9:6b:
                    34:b3:cb:fe:3a:ae:77:07:35:3b:27:93:83:28:a8:
                    a5:0d:1d:65:9c:46:8c:7e:5e:e9:04:06:5e:86:ac:
                    f8:ff:7d:31:c7:cb:5d:37:ce:1b:45:1f:4a:46:6b:
                    c6:6d:0a:8b:95:50:35:18:51:ce:ad:f2:2d:6d:40:
                    49:84:64:0a:a4:64:5c:63:2c:f6:ce:ba:6a:fd:24:
                    ba:e2:49:25:15:c2:a3:ff:11:d2:88:fe:d4:9f:33:
                    13:2e:28:92:cc:ee:e6:6b:85:1b:4f:a4:8e:bd:dc:
                    0d:10:b6:55:45:81:fc:e7:ea:bc:34:e7:e5:d2:64:
                    69:70:43:b5:be:56:1a:b7:cd:2c:4c:0d:75:52:23:
                    7e:c9:eb:cf:0b:fc:8d:42:7a:16:17:44:5e:78:33:
                    97:82:a5:73:79:d1:a0:d0:9a:96:59:4a:ff:40:52:
                    ef:42:b3:da:bf:5b:6a:53:db:83:2d:e5:42:93:c1:
                    b9:35:6b:03:ac:1f:42:62:2e:be:a9:92:1f:4f:1c:
                    2b:f4:91:28:14:d2:a8:5b:ef:c0:8a:56:64:d4:98:
                    71:c2:f4:47:d2:2c:6e:9e:7e:16:19:9c:af:81:ea:
                    17:1f:4a:4e:e2:e6:0d:fd:e0:4a:86:70:00:43:4c:
                    76:57:5b
                Exponent: 65537 (0x10001)
        X509v3 extensions:
            X509v3 Basic Constraints: 
                CA:FALSE
            Netscape Comment: 
                OpenSSL Generated Certificate
            X509v3 Subject Key Identifier: 
                FF:86:86:0F:85:B0:B2:27:53:92:14:9F:51:24:91:18:8C:19:77:92
            X509v3 Authority Key Identifier: 
                DirName:/C=CN/ST=ShangHai/L=ShangHai/O=xyz/OU=xyz/CN=xyz.com./emailAddress=xyz@xyz.com
                serial:9C:9C:95:85:12:9C:1A:FE

    Signature Algorithm: sha256WithRSAEncryption
         02:a2:11:0c:52:bd:8e:32:2b:16:af:55:6e:47:6e:13:8b:71:
         5c:e7:ee:c6:1f:9f:f4:69:78:4f:8c:da:79:af:8e:77:5b:a5:
         6c:93:80:2a:40:2e:62:f7:56:9e:ec:8c:ec:d8:96:3e:4f:31:
         37:4a:d3:a2:b1:ef:c7:66:31:ae:7e:0b:d6:ed:a0:de:1b:fd:
         07:0e:26:7c:08:f0:4b:5e:0e:e1:95:ca:d7:a9:92:40:cd:a6:
         ba:ba:23:d8:ab:a6:7a:f5:2a:aa:62:26:7b:4b:c9:0d:a9:27:
         74:eb:57:44:09:0a:95:5e:59:ca:62:0d:ac:e1:93:07:6a:7d:
         ff:6b:18:78:3a:46:27:a3:03:ee:f8:dc:36:71:1f:76:91:e8:
         e8:9f:9e:05:da:4f:60:cb:83:a3:77:e5:3b:2d:b5:4b:d4:d2:
         69:81:81:f1:98:41:cd:22:a9:7c:f8:a3:3d:54:58:99:ff:84:
         5f:84:d7:c5:3e:ee:2d:a0:ce:3d:ec:8e:9f:49:a1:c6:75:4a:
         d7:6a:2f:d6:46:40:e9:64:ad:d0:49:f3:43:e3:45:5a:02:4d:
         79:b9:9a:3b:c3:fa:0a:47:5f:7a:ff:e1:a5:a7:81:66:06:3c:
         d1:f4:97:4c:3f:2a:3f:d7:fa:5f:e4:17:07:43:65:b9:80:ff:
         93:82:5a:9a:d5:d8:91:2b:16:a8:41:88:03:5c:27:b1:04:70:
         aa:d1:97:18:af:f1:cc:f0:8e:07:c2:13:14:1b:f1:c1:6e:dd:
         5d:74:46:86:df:24:e3:51:4d:46:4f:7a:1b:87:6e:25:7c:77:
         67:29:70:03:d7:35:24:1a:f9:73:00:4c:fd:09:ac:73:1a:f3:
         b4:97:b5:74:41:6f:d8:d5:79:4a:d9:7c:50:48:d9:6d:82:f5:
         39:db:d6:23:30:fa:e5:9e:ff:f8:92:f0:c8:48:19:cb:87:9d:
         a7:1c:cc:1c:5f:4d:b9:ec:7a:27:fd:2b:76:0b:e1:e6:6f:93:
         27:05:cf:c8:8a:e6:b0:91:ea:33:4c:d5:67:ea:ed:97:0d:c0:
         5e:a7:d2:94:97:0b:ae:e0:1d:19:7c:38:0d:86:a4:18:15:9c:
         f8:0f:6a:9d:4e:2a:6e:11:d6:82:8b:98:32:69:73:df:a8:0d:
         8d:9d:73:cc:a7:e6:d8:0e:49:92:f2:01:e1:0a:df:c2:39:42:
         84:86:25:b2:d9:ce:5b:a5:56:39:57:80:b0:de:9c:73:d3:bf:
         42:e9:96:a0:ea:cd:60:47:13:61:ad:71:4e:10:a4:9b:f3:ec:
         74:ca:13:e1:42:fd:ea:9f:c8:cb:0f:3d:05:a0:cf:f1:16:01:
         5a:d4:3b:da:f7:58:3d:cd
-----BEGIN CERTIFICATE-----
MIIGWzCCBEOgAwIBAgIBATANBgkqhkiG9w0BAQsFADB+MQswCQYDVQQGEwJDTjER
MA8GA1UECAwIU2hhbmdIYWkxETAPBgNVBAcMCFNoYW5nSGFpMQwwCgYDVQQKDAN4
eXoxDDAKBgNVBAsMA3h5ejERMA8GA1UEAwwIeHl6LmNvbS4xGjAYBgkqhkiG9w0B
CQEWC3h5ekB4eXouY29tMB4XDTE4MDIwMjA3MjAwNFoXDTI4MDEzMTA3MjAwNFow
ZzELMAkGA1UEBhMCQ04xETAPBgNVBAgMCFNoYW5nSGFpMQwwCgYDVQQKDAN4eXox
DDAKBgNVBAsMA3h5ejENMAsGA1UEAwwEeHl6LjEaMBgGCSqGSIb3DQEJARYLeHl6
QHh5ei5jb20wggIiMA0GCSqGSIb3DQEBAQUAA4ICDwAwggIKAoICAQC1+HsTmABf
FwSKtZF0Srwxrn1lxxKuet0JhMAiy+xc6+OvgHewlHANfuHay3OCnkOIaiErHmzH
8mHceo3k3r9iAdFLXxOn5s2QQsZEmSW12hoIdUV1qxpR0znOGDPikViGTKDVRLQb
JF6iMB0+48YdFzCSfOb95vOaEuulL0Fg9glXQ0ERfYQ2T1vD+dL8ZXszPtEHry4x
+SNnD+fkblCia41UhJYBViZ52uCGe08o18Emg3I9Mz2m2fLvdFrRKLG6aV/EM/iJ
bcQn0NpWS7L2MB1QgIwI2/rhq46XCRBFSbPtY3z8n+WYQe8CRYeLE8Q/dVRKCP/p
b/RlcSfOwD4K1m7U7auDCn9kLyjJazSzy/46rncHNTsnk4MoqKUNHWWcRox+XukE
Bl6GrPj/fTHHy103zhtFH0pGa8ZtCouVUDUYUc6t8i1tQEmEZAqkZFxjLPbOumr9
JLriSSUVwqP/EdKI/tSfMxMuKJLM7uZrhRtPpI693A0QtlVFgfzn6rw05+XSZGlw
Q7W+Vhq3zSxMDXVSI37J688L/I1CehYXRF54M5eCpXN50aDQmpZZSv9AUu9Cs9q/
W2pT24Mt5UKTwbk1awOsH0JiLr6pkh9PHCv0kSgU0qhb78CKVmTUmHHC9EfSLG6e
fhYZnK+B6hcfSk7i5g394EqGcABDTHZXWwIDAQABo4H6MIH3MAkGA1UdEwQCMAAw
LAYJYIZIAYb4QgENBB8WHU9wZW5TU0wgR2VuZXJhdGVkIENlcnRpZmljYXRlMB0G
A1UdDgQWBBT/hoYPhbCyJ1OSFJ9RJJEYjBl3kjCBnAYDVR0jBIGUMIGRoYGDpIGA
MH4xCzAJBgNVBAYTAkNOMREwDwYDVQQIDAhTaGFuZ0hhaTERMA8GA1UEBwwIU2hh
bmdIYWkxDDAKBgNVBAoMA3h5ejEMMAoGA1UECwwDeHl6MREwDwYDVQQDDAh4eXou
Y29tLjEaMBgGCSqGSIb3DQEJARYLeHl6QHh5ei5jb22CCQCcnJWFEpwa/jANBgkq
hkiG9w0BAQsFAAOCAgEAAqIRDFK9jjIrFq9VbkduE4txXOfuxh+f9Gl4T4zaea+O
d1ulbJOAKkAuYvdWnuyM7NiWPk8xN0rTorHvx2Yxrn4L1u2g3hv9Bw4mfAjwS14O
4ZXK16mSQM2muroj2KumevUqqmIme0vJDakndOtXRAkKlV5ZymINrOGTB2p9/2sY
eDpGJ6MD7vjcNnEfdpHo6J+eBdpPYMuDo3flOy21S9TSaYGB8ZhBzSKpfPijPVRY
mf+EX4TXxT7uLaDOPeyOn0mhxnVK12ov1kZA6WSt0EnzQ+NFWgJNebmaO8P6Ckdf
ev/hpaeBZgY80fSXTD8qP9f6X+QXB0NluYD/k4JamtXYkSsWqEGIA1wnsQRwqtGX
GK/xzPCOB8ITFBvxwW7dXXRGht8k41FNRk96G4duJXx3ZylwA9c1JBr5cwBM/Qms
cxrztJe1dEFv2NV5Stl8UEjZbYL1OdvWIzD65Z7/+JLwyEgZy4edpxzMHF9Nuex6
J/0rdgvh5m+TJwXPyIrmsJHqM0zVZ+rtlw3AXqfSlJcLruAdGXw4DYakGBWc+A9q
nU4qbhHWgouYMmlz36gNjZ1zzKfm2A5JkvIB4QrfwjlChIYlstnOW6VWOVeAsN6c
c9O/QumWoOrNYEcTYa1xThCkm/PsdMoT4UL96p/Iyw89BaDP8RYBWtQ72vdYPc0=
-----END CERTIFICATE-----
